target datalayout = "e-m:e-p270:32:32-p271:32:32-p272:64:64-i64:64-i128:128-f80:128-n8:16:32:64-S128"
target triple = "x86_64-pc-linux-gnu"

%struct.remote_group_data = type { ptr, ptr }

@.str.152 = private unnamed_addr constant [9 x i8] c"remotes.\00", align 1
@.str.153 = private unnamed_addr constant [4 x i8] c" \09\0A\00", align 1

; Function Attrs: inlinehint nounwind uwtable
define internal zeroext i1 @skip_prefix(ptr noundef %0, ptr noundef %1, ptr noundef %2) #5 {
  %4 = alloca i1, align 1
  %5 = alloca ptr, align 8
  %6 = alloca ptr, align 8
  %7 = alloca ptr, align 8
  store ptr %0, ptr %5, align 8, !tbaa !11
  store ptr %1, ptr %6, align 8, !tbaa !11
  store ptr %2, ptr %7, align 8, !tbaa !8
  br label %8

8:                                                ; preds = %16, %3
  %9 = load ptr, ptr %6, align 8, !tbaa !11
  %10 = load i8, ptr %9, align 1, !tbaa !119
  %11 = icmp ne i8 %10, 0
  br i1 %11, label %15, label %12

12:                                               ; preds = %8
  %13 = load ptr, ptr %5, align 8, !tbaa !11
  %14 = load ptr, ptr %7, align 8, !tbaa !8
  store ptr %13, ptr %14, align 8, !tbaa !11
  store i1 true, ptr %4, align 1
  br label %27

15:                                               ; preds = %8
  br label %16

16:                                               ; preds = %15
  %17 = load ptr, ptr %5, align 8, !tbaa !11
  %18 = getelementptr inbounds nuw i8, ptr %17, i32 1
  store ptr %18, ptr %5, align 8, !tbaa !11
  %19 = load i8, ptr %17, align 1, !tbaa !119
  %20 = sext i8 %19 to i32
  %21 = load ptr, ptr %6, align 8, !tbaa !11
  %22 = getelementptr inbounds nuw i8, ptr %21, i32 1
  store ptr %22, ptr %6, align 8, !tbaa !11
  %23 = load i8, ptr %21, align 1, !tbaa !119
  %24 = sext i8 %23 to i32
  %25 = icmp eq i32 %20, %24
  br i1 %25, label %8, label %26, !llvm.loop !175

26:                                               ; preds = %16
  store i1 false, ptr %4, align 1
  br label %27

27:                                               ; preds = %26, %12
  %28 = load i1, ptr %4, align 1
  ret i1 %28
}

; Function Attrs: nounwind uwtable
define internal i32 @get_remote_group(ptr noundef %0, ptr noundef %1, ptr noundef %2, ptr noundef %3) #0 {
  %5 = alloca ptr, align 8
  %6 = alloca ptr, align 8
  %7 = alloca ptr, align 8
  %8 = alloca ptr, align 8
  %9 = alloca ptr, align 8
  %10 = alloca i64, align 8
  store ptr %0, ptr %5, align 8, !tbaa !11
  store ptr %1, ptr %6, align 8, !tbaa !11
  store ptr %2, ptr %7, align 8, !tbaa !109
  store ptr %3, ptr %8, align 8, !tbaa !108
  call void @llvm.lifetime.start.p0(i64 8, ptr %9) #11
  %11 = load ptr, ptr %8, align 8, !tbaa !108
  store ptr %11, ptr %9, align 8, !tbaa !171
  %12 = load ptr, ptr %5, align 8, !tbaa !11
  %13 = call zeroext i1 @skip_prefix(ptr noundef %12, ptr noundef @.str.152, ptr noundef %5)
  br i1 %13, label %14, label %53

14:                                               ; preds = %4
  %15 = load ptr, ptr %5, align 8, !tbaa !11
  %16 = load ptr, ptr %9, align 8, !tbaa !171
  %17 = getelementptr inbounds nuw %struct.remote_group_data, ptr %16, i32 0, i32 0
  %18 = load ptr, ptr %17, align 8, !tbaa !129
  %19 = call i32 @strcmp(ptr noundef %15, ptr noundef %18) #13
  %20 = icmp ne i32 %19, 0
  br i1 %20, label %53, label %21

21:                                               ; preds = %14
  br label %22

22:                                               ; preds = %39, %21
  %23 = load ptr, ptr %6, align 8, !tbaa !11
  %24 = load i8, ptr %23, align 1, !tbaa !119
  %25 = icmp ne i8 %24, 0
  br i1 %25, label %26, label %52

26:                                               ; preds = %22
  call void @llvm.lifetime.start.p0(i64 8, ptr %10) #11
  %27 = load ptr, ptr %6, align 8, !tbaa !11
  %28 = call i64 @strcspn(ptr noundef %27, ptr noundef @.str.153) #13
  store i64 %28, ptr %10, align 8, !tbaa !173
  %29 = load i64, ptr %10, align 8, !tbaa !173
  %30 = icmp uge i64 %29, 1
  br i1 %30, label %31, label %39

31:                                               ; preds = %26
  %32 = load ptr, ptr %9, align 8, !tbaa !171
  %33 = getelementptr inbounds nuw %struct.remote_group_data, ptr %32, i32 0, i32 1
  %34 = load ptr, ptr %33, align 8, !tbaa !131
  %35 = load ptr, ptr %6, align 8, !tbaa !11
  %36 = load i64, ptr %10, align 8, !tbaa !173
  %37 = call ptr @xstrndup(ptr noundef %35, i64 noundef %36)
  %38 = call ptr @string_list_append_nodup(ptr noundef %34, ptr noundef %37)
  br label %39

39:                                               ; preds = %31, %26
  %40 = load i64, ptr %10, align 8, !tbaa !173
  %41 = load ptr, ptr %6, align 8, !tbaa !11
  %42 = load i64, ptr %10, align 8, !tbaa !173
  %43 = getelementptr inbounds nuw i8, ptr %41, i64 %42
  %44 = load i8, ptr %43, align 1, !tbaa !119
  %45 = sext i8 %44 to i32
  %46 = icmp ne i32 %45, 0
  %47 = zext i1 %46 to i32
  %48 = sext i32 %47 to i64
  %49 = add i64 %40, %48
  %50 = load ptr, ptr %6, align 8, !tbaa !11
  %51 = getelementptr inbounds nuw i8, ptr %50, i64 %49
  store ptr %51, ptr %6, align 8, !tbaa !11
  call void @llvm.lifetime.end.p0(i64 8, ptr %10) #11
  br label %22, !llvm.loop !174

52:                                               ; preds = %22
  br label %53

53:                                               ; preds = %52, %14, %4
  call void @llvm.lifetime.end.p0(i64 8, ptr %9) #11
  ret i32 0
}