; Function Attrs: nounwind uwtable
define internal noundef i32 @get_remote_group(ptr noundef readonly captures(none) %0, ptr noundef %1, ptr readnone captures(none) %2, ptr noundef readonly captures(none) %3) #0 {
  %scevgep = getelementptr i8, ptr %0, i64 8
  br label %5

5:                                                ; preds = %6, %4
  %.07.i = phi ptr [ %0, %4 ], [ %8, %6 ]
  %.06.i.idx = phi i64 [ 0, %4 ], [ %.06.i.add, %6 ]
  %exitcond = icmp eq i64 %.06.i.idx, 8
  br i1 %exitcond, label %11, label %6

6:                                                ; preds = %5
  %.06.i.ptr = getelementptr inbounds nuw i8, ptr @.str.152, i64 %.06.i.idx
  %7 = load i8, ptr %.06.i.ptr, align 1, !tbaa !125
  %8 = getelementptr inbounds nuw i8, ptr %.07.i, i64 1
  %9 = load i8, ptr %.07.i, align 1, !tbaa !125
  %.06.i.add = add nuw nsw i64 %.06.i.idx, 1
  %10 = icmp eq i8 %9, %7
  br i1 %10, label %5, label %skip_prefix.exit, !llvm.loop !155

11:                                               ; preds = %5
  %12 = load ptr, ptr %3, align 8, !tbaa !55
  %13 = tail call i32 @strcmp(ptr noundef nonnull dereferenceable(1) %scevgep, ptr noundef nonnull dereferenceable(1) %12) #22
  %.not = icmp eq i32 %13, 0
  br i1 %.not, label %.preheader, label %skip_prefix.exit

.preheader:                                       ; preds = %11
  %14 = load i8, ptr %1, align 1, !tbaa !125
  %.not1219 = icmp eq i8 %14, 0
  br i1 %.not1219, label %skip_prefix.exit, label %.lr.ph

.lr.ph:                                           ; preds = %.preheader
  %15 = getelementptr inbounds nuw i8, ptr %3, i64 8
  br label %16

16:                                               ; preds = %.lr.ph, %22
  %.020 = phi ptr [ %1, %.lr.ph ], [ %27, %22 ]
  %17 = tail call i64 @strcspn(ptr noundef nonnull %.020, ptr noundef nonnull @.str.153) #22
  %.not13 = icmp eq i64 %17, 0
  br i1 %.not13, label %22, label %18

18:                                               ; preds = %16
  %19 = load ptr, ptr %15, align 8, !tbaa !58
  %20 = tail call ptr @xstrndup(ptr noundef nonnull %.020, i64 noundef %17) #20
  %21 = tail call ptr @string_list_append_nodup(ptr noundef %19, ptr noundef %20) #20
  br label %22

22:                                               ; preds = %18, %16
  %23 = getelementptr inbounds nuw i8, ptr %.020, i64 %17
  %24 = load i8, ptr %23, align 1, !tbaa !125
  %25 = icmp ne i8 %24, 0
  %26 = zext i1 %25 to i64
  %27 = getelementptr i8, ptr %23, i64 %26
  %28 = load i8, ptr %27, align 1, !tbaa !125
  %.not12 = icmp eq i8 %28, 0
  br i1 %.not12, label %skip_prefix.exit, label %16, !llvm.loop !207

skip_prefix.exit:                                 ; preds = %6, %22, %.preheader, %11
  ret i32 0
}